; Function Attrs: nounwind uwtable
define noalias noundef nonnull ptr @l_Lean_Elab_Tactic_NormCast_prove___lambda__3(ptr noundef %0, ptr readnone captures(none) %1, ptr readnone captures(none) %2, ptr readnone captures(none) %3, ptr readnone captures(none) %4, ptr readnone captures(none) %5, ptr readnone captures(none) %6, ptr readnone captures(none) %7, ptr noundef %8) local_unnamed_addr #0 {
  %10 = ptrtoint ptr %0 to i64
  %11 = and i64 %10, 1
  %.not.i28 = icmp eq i64 %11, 0
  br i1 %.not.i28, label %15, label %12

12:                                               ; preds = %9
  %13 = lshr i64 %10, 1
  %14 = trunc i64 %13 to i32
  br label %lean_obj_tag.exit

15:                                               ; preds = %9
  %16 = getelementptr i8, ptr %0, i64 4
  %.val.i = load i32, ptr %16, align 4
  %17 = lshr i32 %.val.i, 24
  br label %lean_obj_tag.exit

lean_obj_tag.exit:                                ; preds = %12, %15
  %.0.i = phi i32 [ %14, %12 ], [ %17, %15 ]
  %18 = icmp eq i32 %.0.i, 0
  br i1 %18, label %19, label %23

19:                                               ; preds = %lean_obj_tag.exit
  tail call void @lean_inc_heartbeat() #5
  %20 = tail call noalias ptr @mi_malloc_small(i64 noundef 24) #5
  %21 = icmp eq ptr %20, null
  br i1 %21, label %22, label %lean_alloc_ctor.exit

22:                                               ; preds = %19
  tail call void @lean_internal_panic_out_of_memory() #6
  unreachable

23:                                               ; preds = %lean_obj_tag.exit
  %.val = load i32, ptr %0, align 4, !tbaa !8
  %24 = icmp eq i32 %.val, 1
  %25 = getelementptr inbounds nuw i8, ptr %0, i64 8
  %26 = load ptr, ptr %25, align 8, !tbaa !4
  br i1 %24, label %27, label %32

27:                                               ; preds = %23
  %28 = tail call ptr @l_Lean_Expr_fvar___override(ptr noundef %26) #5
  store ptr %28, ptr %25, align 8, !tbaa !4
  tail call void @lean_inc_heartbeat() #5
  %29 = tail call noalias ptr @mi_malloc_small(i64 noundef 24) #5
  %30 = icmp eq ptr %29, null
  br i1 %30, label %31, label %lean_alloc_ctor.exit

31:                                               ; preds = %27
  tail call void @lean_internal_panic_out_of_memory() #6
  unreachable

32:                                               ; preds = %23
  %33 = ptrtoint ptr %26 to i64
  %34 = and i64 %33, 1
  %.not = icmp eq i64 %34, 0
  br i1 %.not, label %35, label %lean_inc.exit

35:                                               ; preds = %32
  %.val.i30 = load i32, ptr %26, align 4, !tbaa !8
  %36 = icmp sgt i32 %.val.i30, 0
  br i1 %36, label %37, label %39, !prof !11

37:                                               ; preds = %35
  %38 = add nuw i32 %.val.i30, 1
  store i32 %38, ptr %26, align 4, !tbaa !8
  br label %lean_inc.exit

39:                                               ; preds = %35
  %.not.i31 = icmp eq i32 %.val.i30, 0
  br i1 %.not.i31, label %lean_inc.exit, label %40

40:                                               ; preds = %39
  tail call void @lean_inc_ref_cold(ptr noundef nonnull %26) #5
  br label %lean_inc.exit

lean_inc.exit:                                    ; preds = %40, %39, %37, %32
  br i1 %.not.i28, label %41, label %lean_dec.exit

41:                                               ; preds = %lean_inc.exit
  %42 = load i32, ptr %0, align 4, !tbaa !8
  %43 = icmp sgt i32 %42, 1
  br i1 %43, label %44, label %46, !prof !11

44:                                               ; preds = %41
  %45 = add nsw i32 %42, -1
  store i32 %45, ptr %0, align 4, !tbaa !8
  br label %lean_dec.exit

46:                                               ; preds = %41
  %.not.i = icmp eq i32 %42, 0
  br i1 %.not.i, label %lean_dec.exit, label %47

47:                                               ; preds = %46
  tail call void @lean_dec_ref_cold(ptr noundef nonnull %0) #5
  br label %lean_dec.exit

lean_dec.exit:                                    ; preds = %47, %46, %44, %lean_inc.exit
  %48 = tail call ptr @l_Lean_Expr_fvar___override(ptr noundef %26) #5
  tail call void @lean_inc_heartbeat() #5
  %49 = tail call noalias ptr @mi_malloc_small(i64 noundef 16) #5
  %50 = icmp eq ptr %49, null
  br i1 %50, label %51, label %lean_alloc_ctor.exit32

51:                                               ; preds = %lean_dec.exit
  tail call void @lean_internal_panic_out_of_memory() #6
  unreachable

lean_alloc_ctor.exit32:                           ; preds = %lean_dec.exit
  %52 = getelementptr inbounds nuw i8, ptr %49, i64 4
  store i32 1, ptr %49, align 4, !tbaa !8
  store i32 16842768, ptr %52, align 4
  %53 = getelementptr inbounds nuw i8, ptr %49, i64 8
  store ptr %48, ptr %53, align 8, !tbaa !4
  tail call void @lean_inc_heartbeat() #5
  %54 = tail call noalias ptr @mi_malloc_small(i64 noundef 24) #5
  %55 = icmp eq ptr %54, null
  br i1 %55, label %56, label %lean_alloc_ctor.exit

56:                                               ; preds = %lean_alloc_ctor.exit32
  tail call void @lean_internal_panic_out_of_memory() #6
  unreachable

lean_alloc_ctor.exit:                             ; preds = %lean_alloc_ctor.exit32, %27, %19
  %.sink40 = phi ptr [ %20, %19 ], [ %29, %27 ], [ %54, %lean_alloc_ctor.exit32 ]
  %.sink = phi ptr [ inttoptr (i64 1 to ptr), %19 ], [ %0, %27 ], [ %49, %lean_alloc_ctor.exit32 ]
  %57 = getelementptr inbounds nuw i8, ptr %.sink40, i64 4
  store i32 1, ptr %.sink40, align 4, !tbaa !8
  store i32 131096, ptr %57, align 4
  %58 = getelementptr inbounds nuw i8, ptr %.sink40, i64 8
  store ptr %.sink, ptr %58, align 8, !tbaa !4
  %59 = getelementptr inbounds nuw i8, ptr %.sink40, i64 16
  store ptr %8, ptr %59, align 8, !tbaa !4
  ret ptr %.sink40
}